; Function Attrs: mustprogress nofree norecurse nosync nounwind willreturn memory(readwrite, inaccessiblemem: none) uwtable
define internal void @_ZN12SparseMatrixIfE7SolveCGIfEEiRKS0_PKT_iPS4_S4_ibbi.omp_outlined.100.omp.reduction.reduction_func(ptr nocapture noundef readonly %0, ptr nocapture noundef readonly %1) #33 {
  %3 = load ptr, ptr %1, align 8
  %4 = load ptr, ptr %0, align 8
  %5 = load double, ptr %4, align 8
  %6 = load double, ptr %3, align 8
  %7 = fadd double %5, %6
  store double %7, ptr %4, align 8
  ret void
}